; Function Attrs: mustprogress nofree norecurse nosync nounwind willreturn memory(read, inaccessiblemem: none) uwtable
define dso_local noundef range(i32 0, 3) i32 @_Z9PlaneTestRK7btPlaneRK9btVector3(ptr noundef nonnull readonly align 4 captures(none) dereferenceable(20) %0, ptr noundef nonnull readonly align 4 captures(none) dereferenceable(16) %1) local_unnamed_addr #6 {
  %3 = load float, ptr %1, align 4, !tbaa !4
  %4 = load float, ptr %0, align 4, !tbaa !4
  %5 = getelementptr inbounds nuw i8, ptr %1, i64 4
  %6 = load float, ptr %5, align 4, !tbaa !4
  %7 = getelementptr inbounds nuw i8, ptr %0, i64 4
  %8 = load float, ptr %7, align 4, !tbaa !4
  %9 = fmul float %6, %8
  %10 = tail call float @llvm.fmuladd.f32(float %3, float %4, float %9)
  %11 = getelementptr inbounds nuw i8, ptr %1, i64 8
  %12 = load float, ptr %11, align 4, !tbaa !4
  %13 = getelementptr inbounds nuw i8, ptr %0, i64 8
  %14 = load float, ptr %13, align 4, !tbaa !4
  %15 = tail call noundef float @llvm.fmuladd.f32(float %12, float %14, float %10)
  %16 = getelementptr inbounds nuw i8, ptr %0, i64 16
  %17 = load float, ptr %16, align 4, !tbaa !8
  %18 = fadd float %15, %17
  %19 = load float, ptr @planetestepsilon, align 4, !tbaa !4
  %20 = fcmp ogt float %18, %19
  %21 = fneg float %19
  %22 = fcmp olt float %18, %21
  %23 = zext i1 %22 to i32
  %24 = select i1 %20, i32 2, i32 %23
  ret i32 %24
}